target datalayout = "e-m:e-p270:32:32-p271:32:32-p272:64:64-i64:64-i128:128-f80:128-n8:16:32:64-S128"
target triple = "x86_64-pc-linux-gnu"

%struct.Float4X4 = type { %union.anon }
%union.anon = type { %struct.anon }
%struct.anon = type { float, float, float, float, float, float, float, float, float, float, float, float, float, float, float, float }

; Function Attrs: nounwind uwtable
define hidden void @MatrixScaling(ptr dead_on_unwind noalias writable sret(%struct.Float4X4) align 4 %0, float noundef %1, float noundef %2, float noundef %3) #0 {
  %5 = alloca float, align 4
  %6 = alloca float, align 4
  %7 = alloca float, align 4
  store float %1, ptr %5, align 4
  store float %2, ptr %6, align 4
  store float %3, ptr %7, align 4
  call void @llvm.memset.p0.i64(ptr align 4 %0, i8 0, i64 64, i1 false)
  %8 = load float, ptr %5, align 4
  %9 = getelementptr inbounds nuw %struct.Float4X4, ptr %0, i32 0, i32 0
  %10 = getelementptr inbounds nuw %struct.anon, ptr %9, i32 0, i32 0
  store float %8, ptr %10, align 4
  %11 = load float, ptr %6, align 4
  %12 = getelementptr inbounds nuw %struct.Float4X4, ptr %0, i32 0, i32 0
  %13 = getelementptr inbounds nuw %struct.anon, ptr %12, i32 0, i32 5
  store float %11, ptr %13, align 4
  %14 = load float, ptr %7, align 4
  %15 = getelementptr inbounds nuw %struct.Float4X4, ptr %0, i32 0, i32 0
  %16 = getelementptr inbounds nuw %struct.anon, ptr %15, i32 0, i32 10
  store float %14, ptr %16, align 4
  %17 = getelementptr inbounds nuw %struct.Float4X4, ptr %0, i32 0, i32 0
  %18 = getelementptr inbounds nuw %struct.anon, ptr %17, i32 0, i32 15
  store float 1.000000e+00, ptr %18, align 4
  ret void
}